target datalayout = "e-m:e-p270:32:32-p271:32:32-p272:64:64-i64:64-i128:128-f80:128-n8:16:32:64-S128"
target triple = "x86_64-pc-linux-gnu"

@forkNames = dso_local constant [4 x ptr] [ptr @.str, ptr @.str.1, ptr @.str.2, ptr @.str.3], align 16

; Function Attrs: nounwind uwtable
define dso_local i32 @forkname_chars(ptr noundef %0, ptr noundef %1) #0 {
  %3 = alloca i32, align 4
  %4 = alloca ptr, align 8
  %5 = alloca ptr, align 8
  %6 = alloca i32, align 4
  %7 = alloca i32, align 4
  %8 = alloca i32, align 4
  store ptr %0, ptr %4, align 8
  store ptr %1, ptr %5, align 8
  call void @llvm.lifetime.start.p0(i64 4, ptr %6) #5
  store i32 1, ptr %6, align 4
  br label %9

9:                                                ; preds = %40, %2
  %10 = load i32, ptr %6, align 4
  %11 = icmp sle i32 %10, 3
  br i1 %11, label %12, label %43

12:                                               ; preds = %9
  call void @llvm.lifetime.start.p0(i64 4, ptr %7) #5
  %13 = load i32, ptr %6, align 4
  %14 = sext i32 %13 to i64
  %15 = getelementptr inbounds [4 x ptr], ptr @forkNames, i64 0, i64 %14
  %16 = load ptr, ptr %15, align 8
  %17 = call i64 @strlen(ptr noundef %16) #6
  %18 = trunc i64 %17 to i32
  store i32 %18, ptr %7, align 4
  %19 = load i32, ptr %6, align 4
  %20 = sext i32 %19 to i64
  %21 = getelementptr inbounds [4 x ptr], ptr @forkNames, i64 0, i64 %20
  %22 = load ptr, ptr %21, align 8
  %23 = load ptr, ptr %4, align 8
  %24 = load i32, ptr %7, align 4
  %25 = sext i32 %24 to i64
  %26 = call i32 @strncmp(ptr noundef %22, ptr noundef %23, i64 noundef %25) #6
  %27 = icmp eq i32 %26, 0
  br i1 %27, label %28, label %36

28:                                               ; preds = %12
  %29 = load ptr, ptr %5, align 8
  %30 = icmp ne ptr %29, null
  br i1 %30, label %31, label %34

31:                                               ; preds = %28
  %32 = load i32, ptr %6, align 4
  %33 = load ptr, ptr %5, align 8
  store i32 %32, ptr %33, align 4
  br label %34

34:                                               ; preds = %31, %28
  %35 = load i32, ptr %7, align 4
  store i32 %35, ptr %3, align 4
  store i32 1, ptr %8, align 4
  br label %37

36:                                               ; preds = %12
  store i32 0, ptr %8, align 4
  br label %37

37:                                               ; preds = %36, %34
  call void @llvm.lifetime.end.p0(i64 4, ptr %7) #5
  %38 = load i32, ptr %8, align 4
  switch i32 %38, label %49 [
    i32 0, label %39
  ]

39:                                               ; preds = %37
  br label %40

40:                                               ; preds = %39
  %41 = load i32, ptr %6, align 4
  %42 = add i32 %41, 1
  store i32 %42, ptr %6, align 4
  br label %9, !llvm.loop !6

43:                                               ; preds = %9
  %44 = load ptr, ptr %5, align 8
  %45 = icmp ne ptr %44, null
  br i1 %45, label %46, label %48

46:                                               ; preds = %43
  %47 = load ptr, ptr %5, align 8
  store i32 -1, ptr %47, align 4
  br label %48

48:                                               ; preds = %46, %43
  store i32 0, ptr %3, align 4
  store i32 1, ptr %8, align 4
  br label %49

49:                                               ; preds = %48, %37
  call void @llvm.lifetime.end.p0(i64 4, ptr %6) #5
  %50 = load i32, ptr %3, align 4
  ret i32 %50
}