; Function Attrs: nofree nounwind memory(read, argmem: readwrite, inaccessiblemem: none) uwtable
define dso_local i32 @forkname_chars(ptr noundef readonly captures(none) %0, ptr noundef writeonly captures(address_is_null) %1) local_unnamed_addr #4 {
  br label %3

3:                                                ; preds = %2, %13
  %indvars.iv = phi i64 [ 1, %2 ], [ %indvars.iv.next, %13 ]
  %4 = getelementptr inbounds nuw [4 x ptr], ptr @forkNames, i64 0, i64 %indvars.iv
  %5 = load ptr, ptr %4, align 8
  %6 = tail call i64 @strlen(ptr noundef nonnull dereferenceable(1) %5) #6
  %sext = shl i64 %6, 32
  %7 = ashr exact i64 %sext, 32
  %8 = tail call i32 @strncmp(ptr noundef nonnull %5, ptr noundef %0, i64 noundef %7) #6
  %.not18 = icmp eq i32 %8, 0
  br i1 %.not18, label %9, label %13

9:                                                ; preds = %3
  %10 = trunc i64 %6 to i32
  %.not17 = icmp eq ptr %1, null
  br i1 %.not17, label %.thread, label %11

11:                                               ; preds = %9
  %12 = trunc nuw nsw i64 %indvars.iv to i32
  br label %.thread.sink.split

13:                                               ; preds = %3
  %indvars.iv.next = add nuw nsw i64 %indvars.iv, 1
  %exitcond.not = icmp eq i64 %indvars.iv.next, 4
  br i1 %exitcond.not, label %14, label %3, !llvm.loop !6

14:                                               ; preds = %13
  %.not = icmp eq ptr %1, null
  br i1 %.not, label %.thread, label %.thread.sink.split

.thread.sink.split:                               ; preds = %14, %11
  %.sink = phi i32 [ %12, %11 ], [ -1, %14 ]
  %.2.ph = phi i32 [ %10, %11 ], [ 0, %14 ]
  store i32 %.sink, ptr %1, align 4
  br label %.thread

.thread:                                          ; preds = %.thread.sink.split, %9, %14
  %.2 = phi i32 [ 0, %14 ], [ %10, %9 ], [ %.2.ph, %.thread.sink.split ]
  ret i32 %.2
}